target datalayout = "e-m:e-p270:32:32-p271:32:32-p272:64:64-i64:64-i128:128-f80:128-n8:16:32:64-S128"
target triple = "x86_64-unknown-linux-gnu"

%"class.EA::Thread::AtomicInt" = type { %"struct.std::atomic" }
%"struct.std::atomic" = type { %"struct.std::__atomic_base" }
%"struct.std::__atomic_base" = type { i32 }
%"class.EA::StdC::CallbackManager::CallbackVector" = type { ptr, ptr, ptr, [8 x ptr] }
%"class.EA::StdC::CallbackManager" = type { %"class.EA::StdC::ICallbackManager", %"class.EA::StdC::CallbackManager::CallbackVector", %"class.EA::StdC::Stopwatch", %"class.EA::Thread::AtomicInt.0", %"class.EA::Thread::AtomicInt.0", i8, i8, i8, %"class.EA::StdC::RandomLinearCongruential", double, i64, i64, i64, i64, %"class.EA::Thread::Mutex", %"class.EA::Thread::Thread", %"class.EA::Thread::AtomicInt", [4 x i8], %"struct.EA::Thread::ThreadParameters" }
%"class.EA::StdC::ICallbackManager" = type { ptr }
%"class.EA::StdC::Stopwatch" = type { i64, i64, i32, float }
%"class.EA::Thread::AtomicInt.0" = type { %"struct.std::atomic.1" }
%"struct.std::atomic.1" = type { %"struct.std::__atomic_base.2" }
%"struct.std::__atomic_base.2" = type { i64 }
%"class.EA::StdC::RandomLinearCongruential" = type { i32 }
%"class.EA::Thread::Mutex" = type { %struct.EAMutexData }
%struct.EAMutexData = type <{ %union.pthread_mutex_t, i32, [4 x i8] }>
%union.pthread_mutex_t = type { %struct.__pthread_mutex_s }
%struct.__pthread_mutex_s = type { i32, i32, i32, i32, i32, i16, i16, %struct.__pthread_internal_list }
%struct.__pthread_internal_list = type { ptr, ptr }
%"class.EA::Thread::Thread" = type { %struct.EAThreadData }
%struct.EAThreadData = type { ptr }
%"struct.EA::Thread::ThreadParameters" = type <{ ptr, i64, i32, i32, ptr, i64, i8, [7 x i8] }>

@.str.3 = private unnamed_addr constant [16 x i8] c"CallbackManager\00", align 1

; Function Attrs: noreturn nounwind uwtable
define linkonce_odr hidden void @__clang_call_terminate(ptr noundef %0) #3 comdat {
  %2 = call ptr @__cxa_begin_catch(ptr %0) #10
  call void @_ZSt9terminatev() #11
  unreachable
}

; Function Attrs: mustprogress nounwind uwtable
define linkonce_odr dso_local noundef i32 @_ZStorSt12memory_orderSt23__memory_order_modifier(i32 noundef %__m, i32 noundef %__mod) #1 comdat {
entry:
  %__m.addr = alloca i32, align 4
  %__mod.addr = alloca i32, align 4
  store i32 %__m, ptr %__m.addr, align 4
  store i32 %__mod, ptr %__mod.addr, align 4
  %0 = load i32, ptr %__m.addr, align 4
  %1 = load i32, ptr %__mod.addr, align 4
  %or = or i32 %0, %1
  ret i32 %or
}

; Function Attrs: mustprogress nounwind uwtable
define linkonce_odr dso_local noundef i32 @_ZSt24__cmpexch_failure_order2St12memory_order(i32 noundef %__m) #1 comdat {
entry:
  %__m.addr = alloca i32, align 4
  store i32 %__m, ptr %__m.addr, align 4
  %0 = load i32, ptr %__m.addr, align 4
  %cmp = icmp eq i32 %0, 4
  br i1 %cmp, label %cond.true, label %cond.false

cond.true:                                        ; preds = %entry
  br label %cond.end4

cond.false:                                       ; preds = %entry
  %1 = load i32, ptr %__m.addr, align 4
  %cmp1 = icmp eq i32 %1, 3
  br i1 %cmp1, label %cond.true2, label %cond.false3

cond.true2:                                       ; preds = %cond.false
  br label %cond.end

cond.false3:                                      ; preds = %cond.false
  %2 = load i32, ptr %__m.addr, align 4
  br label %cond.end

cond.end:                                         ; preds = %cond.false3, %cond.true2
  %cond = phi i32 [ 0, %cond.true2 ], [ %2, %cond.false3 ]
  br label %cond.end4

cond.end4:                                        ; preds = %cond.end, %cond.true
  %cond5 = phi i32 [ 2, %cond.true ], [ %cond, %cond.end ]
  ret i32 %cond5
}

; Function Attrs: mustprogress nounwind uwtable
define linkonce_odr dso_local noundef i32 @_ZStanSt12memory_orderSt23__memory_order_modifier(i32 noundef %__m, i32 noundef %__mod) #1 comdat {
entry:
  %__m.addr = alloca i32, align 4
  %__mod.addr = alloca i32, align 4
  store i32 %__m, ptr %__m.addr, align 4
  store i32 %__mod, ptr %__mod.addr, align 4
  %0 = load i32, ptr %__m.addr, align 4
  %1 = load i32, ptr %__mod.addr, align 4
  %and = and i32 %0, %1
  ret i32 %and
}

; Function Attrs: mustprogress nounwind uwtable
define linkonce_odr dso_local noundef i32 @_ZSt23__cmpexch_failure_orderSt12memory_order(i32 noundef %__m) #1 comdat personality ptr @__gxx_personality_v0 {
entry:
  %__m.addr = alloca i32, align 4
  store i32 %__m, ptr %__m.addr, align 4
  %0 = load i32, ptr %__m.addr, align 4
  %call = call noundef i32 @_ZStanSt12memory_orderSt23__memory_order_modifier(i32 noundef %0, i32 noundef 65535)
  %call1 = call noundef i32 @_ZSt24__cmpexch_failure_order2St12memory_order(i32 noundef %call) #10
  %1 = load i32, ptr %__m.addr, align 4
  %call2 = call noundef i32 @_ZStanSt12memory_orderSt23__memory_order_modifier(i32 noundef %1, i32 noundef -65536)
  %call3 = invoke noundef i32 @_ZStorSt12memory_orderSt23__memory_order_modifier(i32 noundef %call1, i32 noundef %call2)
          to label %invoke.cont unwind label %terminate.lpad

invoke.cont:                                      ; preds = %entry
  ret i32 %call3

terminate.lpad:                                   ; preds = %entry
  %2 = landingpad { ptr, i32 }
          catch ptr null
  %3 = extractvalue { ptr, i32 } %2, 0
  call void @__clang_call_terminate(ptr %3) #11
  unreachable
}

; Function Attrs: mustprogress nounwind uwtable
define linkonce_odr dso_local noundef zeroext i1 @_ZN2EA6Thread9AtomicIntIiE19SetValueConditionalEii(ptr noundef nonnull align 4 dereferenceable(4) %this, i32 noundef %n, i32 noundef %condition) #1 comdat align 2 {
entry:
  %this.addr.i2 = alloca ptr, align 8
  %__i1.addr.i3 = alloca ptr, align 8
  %__i2.addr.i4 = alloca i32, align 4
  %__m1.addr.i = alloca i32, align 4
  %__m2.addr.i = alloca i32, align 4
  %.atomictmp.i = alloca i32, align 4
  %cmpxchg.bool.i = alloca i8, align 1
  %this.addr.i = alloca ptr, align 8
  %__i1.addr.i = alloca ptr, align 8
  %__i2.addr.i = alloca i32, align 4
  %__m.addr.i = alloca i32, align 4
  %this.addr = alloca ptr, align 8
  %n.addr = alloca i32, align 4
  %condition.addr = alloca i32, align 4
  store ptr %this, ptr %this.addr, align 8
  store i32 %n, ptr %n.addr, align 4
  store i32 %condition, ptr %condition.addr, align 4
  %this1 = load ptr, ptr %this.addr, align 8
  %mValue = getelementptr inbounds %"class.EA::Thread::AtomicInt", ptr %this1, i32 0, i32 0
  %0 = load i32, ptr %n.addr, align 4
  store ptr %mValue, ptr %this.addr.i, align 8
  store ptr %condition.addr, ptr %__i1.addr.i, align 8
  store i32 %0, ptr %__i2.addr.i, align 4
  store i32 5, ptr %__m.addr.i, align 4
  %this1.i = load ptr, ptr %this.addr.i, align 8
  %1 = load ptr, ptr %__i1.addr.i, align 8
  %2 = load i32, ptr %__i2.addr.i, align 4
  %3 = load i32, ptr %__m.addr.i, align 4
  %4 = load i32, ptr %__m.addr.i, align 4
  %call.i = call noundef i32 @_ZSt23__cmpexch_failure_orderSt12memory_order(i32 noundef %4) #10
  store ptr %this1.i, ptr %this.addr.i2, align 8
  store ptr %1, ptr %__i1.addr.i3, align 8
  store i32 %2, ptr %__i2.addr.i4, align 4
  store i32 %3, ptr %__m1.addr.i, align 4
  store i32 %call.i, ptr %__m2.addr.i, align 4
  %this1.i5 = load ptr, ptr %this.addr.i2, align 8
  %5 = load i32, ptr %__m1.addr.i, align 4
  %6 = load ptr, ptr %__i1.addr.i3, align 8
  %7 = load i32, ptr %__i2.addr.i4, align 4
  store i32 %7, ptr %.atomictmp.i, align 4
  %8 = load i32, ptr %__m2.addr.i, align 4
  switch i32 %5, label %monotonic.i [
    i32 1, label %acquire.i
    i32 2, label %acquire.i
    i32 3, label %release.i
    i32 4, label %acqrel.i
    i32 5, label %seqcst.i
  ]

monotonic.i:                                      ; preds = %entry
  switch i32 %8, label %monotonic_fail.i [
    i32 1, label %acquire_fail.i
    i32 2, label %acquire_fail.i
    i32 5, label %seqcst_fail.i
  ]

acquire.i:                                        ; preds = %entry, %entry
  switch i32 %8, label %monotonic_fail9.i [
    i32 1, label %acquire_fail10.i
    i32 2, label %acquire_fail10.i
    i32 5, label %seqcst_fail11.i
  ]

release.i:                                        ; preds = %entry
  switch i32 %8, label %monotonic_fail22.i [
    i32 1, label %acquire_fail23.i
    i32 2, label %acquire_fail23.i
    i32 5, label %seqcst_fail24.i
  ]

acqrel.i:                                         ; preds = %entry
  switch i32 %8, label %monotonic_fail35.i [
    i32 1, label %acquire_fail36.i
    i32 2, label %acquire_fail36.i
    i32 5, label %seqcst_fail37.i
  ]

seqcst.i:                                         ; preds = %entry
  switch i32 %8, label %monotonic_fail48.i [
    i32 1, label %acquire_fail49.i
    i32 2, label %acquire_fail49.i
    i32 5, label %seqcst_fail50.i
  ]

monotonic_fail.i:                                 ; preds = %monotonic.i
  %9 = load i32, ptr %6, align 4
  %10 = load i32, ptr %.atomictmp.i, align 4
  %11 = cmpxchg ptr %this1.i5, i32 %9, i32 %10 monotonic monotonic, align 4
  %12 = extractvalue { i32, i1 } %11, 0
  %13 = extractvalue { i32, i1 } %11, 1
  br i1 %13, label %cmpxchg.continue.i, label %cmpxchg.store_expected.i

acquire_fail.i:                                   ; preds = %monotonic.i, %monotonic.i
  %14 = load i32, ptr %6, align 4
  %15 = load i32, ptr %.atomictmp.i, align 4
  %16 = cmpxchg ptr %this1.i5, i32 %14, i32 %15 monotonic acquire, align 4
  %17 = extractvalue { i32, i1 } %16, 0
  %18 = extractvalue { i32, i1 } %16, 1
  br i1 %18, label %cmpxchg.continue4.i, label %cmpxchg.store_expected3.i

seqcst_fail.i:                                    ; preds = %monotonic.i
  %19 = load i32, ptr %6, align 4
  %20 = load i32, ptr %.atomictmp.i, align 4
  %21 = cmpxchg ptr %this1.i5, i32 %19, i32 %20 monotonic seq_cst, align 4
  %22 = extractvalue { i32, i1 } %21, 0
  %23 = extractvalue { i32, i1 } %21, 1
  br i1 %23, label %cmpxchg.continue7.i, label %cmpxchg.store_expected6.i

atomic.continue2.i:                               ; preds = %cmpxchg.continue7.i, %cmpxchg.continue4.i, %cmpxchg.continue.i
  br label %_ZNSt13__atomic_baseIiE23compare_exchange_strongERiiSt12memory_orderS2_.exit

cmpxchg.store_expected.i:                         ; preds = %monotonic_fail.i
  store i32 %12, ptr %6, align 4
  br label %cmpxchg.continue.i

cmpxchg.continue.i:                               ; preds = %cmpxchg.store_expected.i, %monotonic_fail.i
  %frombool.i = zext i1 %13 to i8
  store i8 %frombool.i, ptr %cmpxchg.bool.i, align 1
  br label %atomic.continue2.i

cmpxchg.store_expected3.i:                        ; preds = %acquire_fail.i
  store i32 %17, ptr %6, align 4
  br label %cmpxchg.continue4.i

cmpxchg.continue4.i:                              ; preds = %cmpxchg.store_expected3.i, %acquire_fail.i
  %frombool5.i = zext i1 %18 to i8
  store i8 %frombool5.i, ptr %cmpxchg.bool.i, align 1
  br label %atomic.continue2.i

cmpxchg.store_expected6.i:                        ; preds = %seqcst_fail.i
  store i32 %22, ptr %6, align 4
  br label %cmpxchg.continue7.i

cmpxchg.continue7.i:                              ; preds = %cmpxchg.store_expected6.i, %seqcst_fail.i
  %frombool8.i = zext i1 %23 to i8
  store i8 %frombool8.i, ptr %cmpxchg.bool.i, align 1
  br label %atomic.continue2.i

monotonic_fail9.i:                                ; preds = %acquire.i
  %24 = load i32, ptr %6, align 4
  %25 = load i32, ptr %.atomictmp.i, align 4
  %26 = cmpxchg ptr %this1.i5, i32 %24, i32 %25 acquire monotonic, align 4
  %27 = extractvalue { i32, i1 } %26, 0
  %28 = extractvalue { i32, i1 } %26, 1
  br i1 %28, label %cmpxchg.continue14.i, label %cmpxchg.store_expected13.i

acquire_fail10.i:                                 ; preds = %acquire.i, %acquire.i
  %29 = load i32, ptr %6, align 4
  %30 = load i32, ptr %.atomictmp.i, align 4
  %31 = cmpxchg ptr %this1.i5, i32 %29, i32 %30 acquire acquire, align 4
  %32 = extractvalue { i32, i1 } %31, 0
  %33 = extractvalue { i32, i1 } %31, 1
  br i1 %33, label %cmpxchg.continue17.i, label %cmpxchg.store_expected16.i

seqcst_fail11.i:                                  ; preds = %acquire.i
  %34 = load i32, ptr %6, align 4
  %35 = load i32, ptr %.atomictmp.i, align 4
  %36 = cmpxchg ptr %this1.i5, i32 %34, i32 %35 acquire seq_cst, align 4
  %37 = extractvalue { i32, i1 } %36, 0
  %38 = extractvalue { i32, i1 } %36, 1
  br i1 %38, label %cmpxchg.continue20.i, label %cmpxchg.store_expected19.i

atomic.continue12.i:                              ; preds = %cmpxchg.continue20.i, %cmpxchg.continue17.i, %cmpxchg.continue14.i
  br label %_ZNSt13__atomic_baseIiE23compare_exchange_strongERiiSt12memory_orderS2_.exit

cmpxchg.store_expected13.i:                       ; preds = %monotonic_fail9.i
  store i32 %27, ptr %6, align 4
  br label %cmpxchg.continue14.i

cmpxchg.continue14.i:                             ; preds = %cmpxchg.store_expected13.i, %monotonic_fail9.i
  %frombool15.i = zext i1 %28 to i8
  store i8 %frombool15.i, ptr %cmpxchg.bool.i, align 1
  br label %atomic.continue12.i

cmpxchg.store_expected16.i:                       ; preds = %acquire_fail10.i
  store i32 %32, ptr %6, align 4
  br label %cmpxchg.continue17.i

cmpxchg.continue17.i:                             ; preds = %cmpxchg.store_expected16.i, %acquire_fail10.i
  %frombool18.i = zext i1 %33 to i8
  store i8 %frombool18.i, ptr %cmpxchg.bool.i, align 1
  br label %atomic.continue12.i

cmpxchg.store_expected19.i:                       ; preds = %seqcst_fail11.i
  store i32 %37, ptr %6, align 4
  br label %cmpxchg.continue20.i

cmpxchg.continue20.i:                             ; preds = %cmpxchg.store_expected19.i, %seqcst_fail11.i
  %frombool21.i = zext i1 %38 to i8
  store i8 %frombool21.i, ptr %cmpxchg.bool.i, align 1
  br label %atomic.continue12.i

monotonic_fail22.i:                               ; preds = %release.i
  %39 = load i32, ptr %6, align 4
  %40 = load i32, ptr %.atomictmp.i, align 4
  %41 = cmpxchg ptr %this1.i5, i32 %39, i32 %40 release monotonic, align 4
  %42 = extractvalue { i32, i1 } %41, 0
  %43 = extractvalue { i32, i1 } %41, 1
  br i1 %43, label %cmpxchg.continue27.i, label %cmpxchg.store_expected26.i

acquire_fail23.i:                                 ; preds = %release.i, %release.i
  %44 = load i32, ptr %6, align 4
  %45 = load i32, ptr %.atomictmp.i, align 4
  %46 = cmpxchg ptr %this1.i5, i32 %44, i32 %45 release acquire, align 4
  %47 = extractvalue { i32, i1 } %46, 0
  %48 = extractvalue { i32, i1 } %46, 1
  br i1 %48, label %cmpxchg.continue30.i, label %cmpxchg.store_expected29.i

seqcst_fail24.i:                                  ; preds = %release.i
  %49 = load i32, ptr %6, align 4
  %50 = load i32, ptr %.atomictmp.i, align 4
  %51 = cmpxchg ptr %this1.i5, i32 %49, i32 %50 release seq_cst, align 4
  %52 = extractvalue { i32, i1 } %51, 0
  %53 = extractvalue { i32, i1 } %51, 1
  br i1 %53, label %cmpxchg.continue33.i, label %cmpxchg.store_expected32.i

atomic.continue25.i:                              ; preds = %cmpxchg.continue33.i, %cmpxchg.continue30.i, %cmpxchg.continue27.i
  br label %_ZNSt13__atomic_baseIiE23compare_exchange_strongERiiSt12memory_orderS2_.exit

cmpxchg.store_expected26.i:                       ; preds = %monotonic_fail22.i
  store i32 %42, ptr %6, align 4
  br label %cmpxchg.continue27.i

cmpxchg.continue27.i:                             ; preds = %cmpxchg.store_expected26.i, %monotonic_fail22.i
  %frombool28.i = zext i1 %43 to i8
  store i8 %frombool28.i, ptr %cmpxchg.bool.i, align 1
  br label %atomic.continue25.i

cmpxchg.store_expected29.i:                       ; preds = %acquire_fail23.i
  store i32 %47, ptr %6, align 4
  br label %cmpxchg.continue30.i

cmpxchg.continue30.i:                             ; preds = %cmpxchg.store_expected29.i, %acquire_fail23.i
  %frombool31.i = zext i1 %48 to i8
  store i8 %frombool31.i, ptr %cmpxchg.bool.i, align 1
  br label %atomic.continue25.i

cmpxchg.store_expected32.i:                       ; preds = %seqcst_fail24.i
  store i32 %52, ptr %6, align 4
  br label %cmpxchg.continue33.i

cmpxchg.continue33.i:                             ; preds = %cmpxchg.store_expected32.i, %seqcst_fail24.i
  %frombool34.i = zext i1 %53 to i8
  store i8 %frombool34.i, ptr %cmpxchg.bool.i, align 1
  br label %atomic.continue25.i

monotonic_fail35.i:                               ; preds = %acqrel.i
  %54 = load i32, ptr %6, align 4
  %55 = load i32, ptr %.atomictmp.i, align 4
  %56 = cmpxchg ptr %this1.i5, i32 %54, i32 %55 acq_rel monotonic, align 4
  %57 = extractvalue { i32, i1 } %56, 0
  %58 = extractvalue { i32, i1 } %56, 1
  br i1 %58, label %cmpxchg.continue40.i, label %cmpxchg.store_expected39.i

acquire_fail36.i:                                 ; preds = %acqrel.i, %acqrel.i
  %59 = load i32, ptr %6, align 4
  %60 = load i32, ptr %.atomictmp.i, align 4
  %61 = cmpxchg ptr %this1.i5, i32 %59, i32 %60 acq_rel acquire, align 4
  %62 = extractvalue { i32, i1 } %61, 0
  %63 = extractvalue { i32, i1 } %61, 1
  br i1 %63, label %cmpxchg.continue43.i, label %cmpxchg.store_expected42.i

seqcst_fail37.i:                                  ; preds = %acqrel.i
  %64 = load i32, ptr %6, align 4
  %65 = load i32, ptr %.atomictmp.i, align 4
  %66 = cmpxchg ptr %this1.i5, i32 %64, i32 %65 acq_rel seq_cst, align 4
  %67 = extractvalue { i32, i1 } %66, 0
  %68 = extractvalue { i32, i1 } %66, 1
  br i1 %68, label %cmpxchg.continue46.i, label %cmpxchg.store_expected45.i

atomic.continue38.i:                              ; preds = %cmpxchg.continue46.i, %cmpxchg.continue43.i, %cmpxchg.continue40.i
  br label %_ZNSt13__atomic_baseIiE23compare_exchange_strongERiiSt12memory_orderS2_.exit

cmpxchg.store_expected39.i:                       ; preds = %monotonic_fail35.i
  store i32 %57, ptr %6, align 4
  br label %cmpxchg.continue40.i

cmpxchg.continue40.i:                             ; preds = %cmpxchg.store_expected39.i, %monotonic_fail35.i
  %frombool41.i = zext i1 %58 to i8
  store i8 %frombool41.i, ptr %cmpxchg.bool.i, align 1
  br label %atomic.continue38.i

cmpxchg.store_expected42.i:                       ; preds = %acquire_fail36.i
  store i32 %62, ptr %6, align 4
  br label %cmpxchg.continue43.i

cmpxchg.continue43.i:                             ; preds = %cmpxchg.store_expected42.i, %acquire_fail36.i
  %frombool44.i = zext i1 %63 to i8
  store i8 %frombool44.i, ptr %cmpxchg.bool.i, align 1
  br label %atomic.continue38.i

cmpxchg.store_expected45.i:                       ; preds = %seqcst_fail37.i
  store i32 %67, ptr %6, align 4
  br label %cmpxchg.continue46.i

cmpxchg.continue46.i:                             ; preds = %cmpxchg.store_expected45.i, %seqcst_fail37.i
  %frombool47.i = zext i1 %68 to i8
  store i8 %frombool47.i, ptr %cmpxchg.bool.i, align 1
  br label %atomic.continue38.i

monotonic_fail48.i:                               ; preds = %seqcst.i
  %69 = load i32, ptr %6, align 4
  %70 = load i32, ptr %.atomictmp.i, align 4
  %71 = cmpxchg ptr %this1.i5, i32 %69, i32 %70 seq_cst monotonic, align 4
  %72 = extractvalue { i32, i1 } %71, 0
  %73 = extractvalue { i32, i1 } %71, 1
  br i1 %73, label %cmpxchg.continue53.i, label %cmpxchg.store_expected52.i

acquire_fail49.i:                                 ; preds = %seqcst.i, %seqcst.i
  %74 = load i32, ptr %6, align 4
  %75 = load i32, ptr %.atomictmp.i, align 4
  %76 = cmpxchg ptr %this1.i5, i32 %74, i32 %75 seq_cst acquire, align 4
  %77 = extractvalue { i32, i1 } %76, 0
  %78 = extractvalue { i32, i1 } %76, 1
  br i1 %78, label %cmpxchg.continue56.i, label %cmpxchg.store_expected55.i

seqcst_fail50.i:                                  ; preds = %seqcst.i
  %79 = load i32, ptr %6, align 4
  %80 = load i32, ptr %.atomictmp.i, align 4
  %81 = cmpxchg ptr %this1.i5, i32 %79, i32 %80 seq_cst seq_cst, align 4
  %82 = extractvalue { i32, i1 } %81, 0
  %83 = extractvalue { i32, i1 } %81, 1
  br i1 %83, label %cmpxchg.continue59.i, label %cmpxchg.store_expected58.i

atomic.continue51.i:                              ; preds = %cmpxchg.continue59.i, %cmpxchg.continue56.i, %cmpxchg.continue53.i
  br label %_ZNSt13__atomic_baseIiE23compare_exchange_strongERiiSt12memory_orderS2_.exit

cmpxchg.store_expected52.i:                       ; preds = %monotonic_fail48.i
  store i32 %72, ptr %6, align 4
  br label %cmpxchg.continue53.i

cmpxchg.continue53.i:                             ; preds = %cmpxchg.store_expected52.i, %monotonic_fail48.i
  %frombool54.i = zext i1 %73 to i8
  store i8 %frombool54.i, ptr %cmpxchg.bool.i, align 1
  br label %atomic.continue51.i

cmpxchg.store_expected55.i:                       ; preds = %acquire_fail49.i
  store i32 %77, ptr %6, align 4
  br label %cmpxchg.continue56.i

cmpxchg.continue56.i:                             ; preds = %cmpxchg.store_expected55.i, %acquire_fail49.i
  %frombool57.i = zext i1 %78 to i8
  store i8 %frombool57.i, ptr %cmpxchg.bool.i, align 1
  br label %atomic.continue51.i

cmpxchg.store_expected58.i:                       ; preds = %seqcst_fail50.i
  store i32 %82, ptr %6, align 4
  br label %cmpxchg.continue59.i

cmpxchg.continue59.i:                             ; preds = %cmpxchg.store_expected58.i, %seqcst_fail50.i
  %frombool60.i = zext i1 %83 to i8
  store i8 %frombool60.i, ptr %cmpxchg.bool.i, align 1
  br label %atomic.continue51.i

_ZNSt13__atomic_baseIiE23compare_exchange_strongERiiSt12memory_orderS2_.exit: ; preds = %atomic.continue51.i, %atomic.continue38.i, %atomic.continue25.i, %atomic.continue12.i, %atomic.continue2.i
  %84 = load i8, ptr %cmpxchg.bool.i, align 1
  %tobool.i = trunc i8 %84 to i1
  ret i1 %tobool.i
}

; Function Attrs: mustprogress uwtable
define dso_local noundef zeroext i1 @_ZN2EA4StdC15CallbackManager11StartThreadEv(ptr noundef nonnull align 8 dereferenceable(296) %this) #2 align 2 {
entry:
  %retval = alloca i1, align 1
  %this.addr = alloca ptr, align 8
  %threadId = alloca i64, align 8
  store ptr %this, ptr %this.addr, align 8
  %this1 = load ptr, ptr %this.addr, align 8
  %mbAsync = getelementptr inbounds %"class.EA::StdC::CallbackManager", ptr %this1, i32 0, i32 7
  %0 = load i8, ptr %mbAsync, align 2
  %tobool = trunc i8 %0 to i1
  br i1 %tobool, label %if.then, label %if.end6

if.then:                                          ; preds = %entry
  %mbThreadStarted = getelementptr inbounds %"class.EA::StdC::CallbackManager", ptr %this1, i32 0, i32 16
  %call = call noundef zeroext i1 @_ZN2EA6Thread9AtomicIntIiE19SetValueConditionalEii(ptr noundef nonnull align 4 dereferenceable(4) %mbThreadStarted, i32 noundef 1, i32 noundef 0)
  br i1 %call, label %if.then2, label %if.end

if.then2:                                         ; preds = %if.then
  %mThreadParam = getelementptr inbounds %"class.EA::StdC::CallbackManager", ptr %this1, i32 0, i32 18
  %mpName = getelementptr inbounds %"struct.EA::Thread::ThreadParameters", ptr %mThreadParam, i32 0, i32 4
  store ptr @.str.3, ptr %mpName, align 8
  %mThread = getelementptr inbounds %"class.EA::StdC::CallbackManager", ptr %this1, i32 0, i32 15
  %mThreadParam3 = getelementptr inbounds %"class.EA::StdC::CallbackManager", ptr %this1, i32 0, i32 18
  %call4 = call noundef ptr @_ZN2EA6Thread6Thread36GetGlobalRunnableFunctionUserWrapperEv()
  %call5 = call noundef i64 @_ZN2EA6Thread6Thread5BeginEPFlPvES2_PKNS0_16ThreadParametersEPFlS4_S2_E(ptr noundef nonnull align 8 dereferenceable(8) %mThread, ptr noundef @_ZN2EA4StdC15CallbackManager9RunStaticEPv, ptr noundef %this1, ptr noundef %mThreadParam3, ptr noundef %call4)
  store i64 %call5, ptr %threadId, align 8
  %1 = load i64, ptr %threadId, align 8
  %cmp = icmp ne i64 %1, 0
  store i1 %cmp, ptr %retval, align 1
  br label %return

if.end:                                           ; preds = %if.then
  store i1 true, ptr %retval, align 1
  br label %return

if.end6:                                          ; preds = %entry
  store i1 false, ptr %retval, align 1
  br label %return

return:                                           ; preds = %if.end6, %if.end, %if.then2
  %2 = load i1, ptr %retval, align 1
  ret i1 %2
}