; Function Attrs: mustprogress uwtable
define dso_local noundef zeroext i1 @_ZN2EA4StdC15CallbackManager11StartThreadEv(ptr noundef nonnull align 8 dereferenceable(296) %this) local_unnamed_addr #1 align 2 personality ptr @__gxx_personality_v0 {
entry:
  %mbAsync = getelementptr inbounds i8, ptr %this, i64 138
  %0 = load i8, ptr %mbAsync, align 2
  %1 = and i8 %0, 1
  %tobool.not = icmp eq i8 %1, 0
  br i1 %tobool.not, label %return, label %if.then

if.then:                                          ; preds = %entry
  %mbThreadStarted = getelementptr inbounds i8, ptr %this, i64 240
  %2 = cmpxchg ptr %mbThreadStarted, i32 0, i32 1 seq_cst seq_cst, align 4
  %3 = extractvalue { i32, i1 } %2, 1
  br i1 %3, label %if.then2, label %return

if.then2:                                         ; preds = %if.then
  %mThreadParam = getelementptr inbounds i8, ptr %this, i64 248
  %mpName = getelementptr inbounds i8, ptr %this, i64 272
  store ptr @.str.3, ptr %mpName, align 8
  %mThread = getelementptr inbounds i8, ptr %this, i64 232
  %call4 = tail call noundef ptr @_ZN2EA6Thread6Thread36GetGlobalRunnableFunctionUserWrapperEv()
  %call5 = tail call noundef i64 @_ZN2EA6Thread6Thread5BeginEPFlPvES2_PKNS0_16ThreadParametersEPFlS4_S2_E(ptr noundef nonnull align 8 dereferenceable(8) %mThread, ptr noundef nonnull @_ZN2EA4StdC15CallbackManager9RunStaticEPv, ptr noundef nonnull %this, ptr noundef nonnull %mThreadParam, ptr noundef %call4)
  %cmp = icmp ne i64 %call5, 0
  br label %return

return:                                           ; preds = %entry, %if.then, %if.then2
  %retval.0 = phi i1 [ %cmp, %if.then2 ], [ true, %if.then ], [ false, %entry ]
  ret i1 %retval.0
}